; Function Attrs: mustprogress uwtable
define ptr @casadi_c_name_id(i32 noundef %0) local_unnamed_addr #5 personality ptr @__gxx_personality_v0 {
  %2 = tail call noundef i32 @_Z11sanitize_idi(i32 noundef %0)
  %.not = icmp eq i32 %2, 0
  br i1 %.not, label %3, label %22

3:                                                ; preds = %1
  %4 = load atomic i8, ptr @_ZGVZ16casadi_c_name_idE4nameB5cxx11 acquire, align 8
  %5 = icmp eq i8 %4, 0
  br i1 %5, label %6, label %10, !prof !81

6:                                                ; preds = %3
  %7 = tail call i32 @__cxa_guard_acquire(ptr nonnull @_ZGVZ16casadi_c_name_idE4nameB5cxx11) #23
  %.not2 = icmp eq i32 %7, 0
  br i1 %.not2, label %10, label %8

8:                                                ; preds = %6
  store ptr getelementptr inbounds nuw (i8, ptr @_ZZ16casadi_c_name_idE4nameB5cxx11, i64 16), ptr @_ZZ16casadi_c_name_idE4nameB5cxx11, align 8, !tbaa !24
  store i64 0, ptr getelementptr inbounds nuw (i8, ptr @_ZZ16casadi_c_name_idE4nameB5cxx11, i64 8), align 8, !tbaa !31
  store i8 0, ptr getelementptr inbounds nuw (i8, ptr @_ZZ16casadi_c_name_idE4nameB5cxx11, i64 16), align 8, !tbaa !30
  %9 = tail call i32 @__cxa_atexit(ptr nonnull @_ZNSt7__cxx1112basic_stringIcSt11char_traitsIcESaIcEED2Ev, ptr nonnull @_ZZ16casadi_c_name_idE4nameB5cxx11, ptr nonnull @__dso_handle) #23
  tail call void @__cxa_guard_release(ptr nonnull @_ZGVZ16casadi_c_name_idE4nameB5cxx11) #23
  br label %10

10:                                               ; preds = %8, %6, %3
  %11 = sext i32 %0 to i64
  %12 = load ptr, ptr getelementptr inbounds nuw (i8, ptr @_ZL25casadi_c_loaded_functions, i64 8), align 8, !tbaa !9
  %13 = load ptr, ptr @_ZL25casadi_c_loaded_functions, align 8, !tbaa !3
  %14 = ptrtoint ptr %12 to i64
  %15 = ptrtoint ptr %13 to i64
  %16 = sub i64 %14, %15
  %17 = ashr exact i64 %16, 3
  %.not.i.i = icmp ugt i64 %17, %11
  br i1 %.not.i.i, label %_ZNSt6vectorIN6casadi8FunctionESaIS1_EE2atEm.exit, label %18

18:                                               ; preds = %10
  tail call void (ptr, ...) @_ZSt24__throw_out_of_range_fmtPKcz(ptr noundef nonnull @.str.20, i64 noundef %11, i64 noundef %17) #25
  unreachable

_ZNSt6vectorIN6casadi8FunctionESaIS1_EE2atEm.exit: ; preds = %10
  %19 = getelementptr inbounds nuw %"class.casadi::Function", ptr %13, i64 %11
  %20 = tail call noundef nonnull align 8 dereferenceable(32) ptr @_ZNK6casadi8Function4nameB5cxx11Ev(ptr noundef nonnull align 8 dereferenceable(8) %19)
  tail call void @_ZNSt7__cxx1112basic_stringIcSt11char_traitsIcESaIcEE9_M_assignERKS4_(ptr noundef nonnull align 8 dereferenceable(32) @_ZZ16casadi_c_name_idE4nameB5cxx11, ptr noundef nonnull align 8 dereferenceable(32) %20)
  %21 = load ptr, ptr @_ZZ16casadi_c_name_idE4nameB5cxx11, align 8, !tbaa !28
  br label %22

22:                                               ; preds = %1, %_ZNSt6vectorIN6casadi8FunctionESaIS1_EE2atEm.exit
  %.0 = phi ptr [ %21, %_ZNSt6vectorIN6casadi8FunctionESaIS1_EE2atEm.exit ], [ @.str.9, %1 ]
  ret ptr %.0
}